; ModuleID = '60/271.c'
source_filename = "60/271.c"
target datalayout = "e-m:e-p270:32:32-p271:32:32-p272:64:64-i64:64-f80:128-n8:16:32:64-S128"
target triple = "x86_64-pc-linux-gnu"

@.str = private unnamed_addr constant [3 x i8] c"%d\00", align 1
@.str.1 = private unnamed_addr constant [6 x i8] c"empty\00", align 1
@.str.2 = private unnamed_addr constant [7 x i8] c"%d %d\0A\00", align 1

; Function Attrs: noinline nounwind uwtable
define dso_local i32 @main() #0 {
  %1 = alloca i32, align 4
  %2 = alloca i32, align 4
  %3 = alloca i32, align 4
  %4 = alloca i32, align 4
  %5 = alloca i32, align 4
  store i32 0, i32* %1, align 4
  store i32 0, i32* %2, align 4
  %6 = call i32 (i8*, ...) @__isoc99_scanf(i8* getelementptr inbounds ([3 x i8], [3 x i8]* @.str, i64 0, i64 0), i32* %2)
  %7 = load i32, i32* %2, align 4
  %8 = icmp slt i32 %7, 5
  br i1 %8, label %9, label %11

9:                                                ; preds = %0
  %10 = call i32 (i8*, ...) @printf(i8* getelementptr inbounds ([6 x i8], [6 x i8]* @.str.1, i64 0, i64 0))
  br label %69

11:                                               ; preds = %0
  store i32 3, i32* %3, align 4
  br label %12

12:                                               ; preds = %65, %11
  %13 = load i32, i32* %3, align 4
  %14 = load i32, i32* %2, align 4
  %15 = sub nsw i32 %14, 2
  %16 = icmp sle i32 %13, %15
  br i1 %16, label %17, label %68

17:                                               ; preds = %12
  store i32 3, i32* %4, align 4
  br label %18

18:                                               ; preds = %29, %17
  %19 = load i32, i32* %4, align 4
  %20 = load i32, i32* %3, align 4
  %21 = icmp slt i32 %19, %20
  br i1 %21, label %22, label %32

22:                                               ; preds = %18
  %23 = load i32, i32* %3, align 4
  %24 = load i32, i32* %4, align 4
  %25 = srem i32 %23, %24
  %26 = icmp eq i32 %25, 0
  br i1 %26, label %27, label %28

27:                                               ; preds = %22
  br label %32

28:                                               ; preds = %22
  br label %29

29:                                               ; preds = %28
  %30 = load i32, i32* %4, align 4
  %31 = add nsw i32 %30, 1
  store i32 %31, i32* %4, align 4
  br label %18

32:                                               ; preds = %27, %18
  %33 = load i32, i32* %4, align 4
  %34 = load i32, i32* %3, align 4
  %35 = icmp eq i32 %33, %34
  br i1 %35, label %36, label %64

36:                                               ; preds = %32
  store i32 3, i32* %5, align 4
  br label %37

37:                                               ; preds = %50, %36
  %38 = load i32, i32* %5, align 4
  %39 = load i32, i32* %3, align 4
  %40 = add nsw i32 %39, 2
  %41 = icmp slt i32 %38, %40
  br i1 %41, label %42, label %53

42:                                               ; preds = %37
  %43 = load i32, i32* %3, align 4
  %44 = add nsw i32 %43, 2
  %45 = load i32, i32* %5, align 4
  %46 = srem i32 %44, %45
  %47 = icmp eq i32 %46, 0
  br i1 %47, label %48, label %49

48:                                               ; preds = %42
  br label %53

49:                                               ; preds = %42
  br label %50

50:                                               ; preds = %49
  %51 = load i32, i32* %5, align 4
  %52 = add nsw i32 %51, 1
  store i32 %52, i32* %5, align 4
  br label %37

53:                                               ; preds = %48, %37
  %54 = load i32, i32* %5, align 4
  %55 = load i32, i32* %3, align 4
  %56 = add nsw i32 %55, 2
  %57 = icmp eq i32 %54, %56
  br i1 %57, label %58, label %63

58:                                               ; preds = %53
  %59 = load i32, i32* %5, align 4
  %60 = sub nsw i32 %59, 2
  %61 = load i32, i32* %5, align 4
  %62 = call i32 (i8*, ...) @printf(i8* getelementptr inbounds ([7 x i8], [7 x i8]* @.str.2, i64 0, i64 0), i32 %60, i32 %61)
  br label %63

63:                                               ; preds = %58, %53
  br label %64

64:                                               ; preds = %63, %32
  br label %65

65:                                               ; preds = %64
  %66 = load i32, i32* %3, align 4
  %67 = add nsw i32 %66, 1
  store i32 %67, i32* %3, align 4
  br label %12

68:                                               ; preds = %12
  br label %69

69:                                               ; preds = %68, %9
  %70 = call i32 @getchar()
  %71 = call i32 @getchar()
  %72 = load i32, i32* %1, align 4
  ret i32 %72
}

declare dso_local i32 @__isoc99_scanf(i8*, ...) #1

declare dso_local i32 @printf(i8*, ...) #1

declare dso_local i32 @getchar() #1


!llvm.module.flags = !{!0}
!llvm.ident = !{!1}

!0 = !{i32 1, !"wchar_size", i32 4}
!1 = !{!"clang version 10.0.0-4ubuntu1 "}
