; ModuleID = 'source-C-CXX/59/271.c'
source_filename = "source-C-CXX/59/271.c"
target datalayout = "e-m:e-p270:32:32-p271:32:32-p272:64:64-i64:64-f80:128-n8:16:32:64-S128"
target triple = "x86_64-pc-linux-gnu"

%struct._IO_FILE = type { i32, i8*, i8*, i8*, i8*, i8*, i8*, i8*, i8*, i8*, i8*, i8*, %struct._IO_marker*, %struct._IO_FILE*, i32, i32, i64, i16, i8, [1 x i8], i8*, i64, %struct._IO_codecvt*, %struct._IO_wide_data*, %struct._IO_FILE*, i8*, i64, i32, [20 x i8] }
%struct._IO_marker = type opaque
%struct._IO_codecvt = type opaque
%struct._IO_wide_data = type opaque

@.str = private unnamed_addr constant [3 x i8] c"%d\00", align 1
@.str.1 = private unnamed_addr constant [6 x i8] c"empty\00", align 1
@.str.2 = private unnamed_addr constant [7 x i8] c"%d %d\0A\00", align 1
@stdin = external local_unnamed_addr global %struct._IO_FILE*, align 8

; Function Attrs: nofree nounwind sspstrong uwtable
define dso_local i32 @main() local_unnamed_addr #0 {
  %1 = alloca i32, align 4
  %2 = bitcast i32* %1 to i8*
  call void @llvm.lifetime.start.p0i8(i64 4, i8* nonnull %2) #3
  store i32 0, i32* %1, align 4, !tbaa !5
  %3 = call i32 (i8*, ...) @__isoc99_scanf(i8* getelementptr inbounds ([3 x i8], [3 x i8]* @.str, i64 0, i64 0), i32* nonnull %1)
  %4 = load i32, i32* %1, align 4, !tbaa !5
  %5 = icmp slt i32 %4, 5
  br i1 %5, label %6, label %8

6:                                                ; preds = %0
  %7 = call i32 (i8*, ...) @printf(i8* nonnull dereferenceable(1) getelementptr inbounds ([6 x i8], [6 x i8]* @.str.1, i64 0, i64 0))
  br label %44

8:                                                ; preds = %0, %38
  %9 = phi i32 [ %39, %38 ], [ %4, %0 ]
  %10 = phi i32 [ %43, %38 ], [ 5, %0 ]
  %11 = phi i32 [ %40, %38 ], [ 3, %0 ]
  %12 = icmp ugt i32 %11, 3
  br i1 %12, label %13, label %20

13:                                               ; preds = %8, %17
  %14 = phi i32 [ %18, %17 ], [ 3, %8 ]
  %15 = urem i32 %11, %14
  %16 = icmp eq i32 %15, 0
  br i1 %16, label %20, label %17

17:                                               ; preds = %13
  %18 = add nuw nsw i32 %14, 1
  %19 = icmp eq i32 %18, %11
  br i1 %19, label %23, label %13, !llvm.loop !9

20:                                               ; preds = %13, %8
  %21 = phi i32 [ 3, %8 ], [ %14, %13 ]
  %22 = icmp eq i32 %21, %11
  br i1 %22, label %23, label %38

23:                                               ; preds = %17, %20
  %24 = add nuw nsw i32 %11, 2
  br label %25

25:                                               ; preds = %23, %29
  %26 = phi i32 [ %30, %29 ], [ 3, %23 ]
  %27 = urem i32 %24, %26
  %28 = icmp eq i32 %27, 0
  br i1 %28, label %32, label %29

29:                                               ; preds = %25
  %30 = add nuw i32 %26, 1
  %31 = icmp eq i32 %30, %10
  br i1 %31, label %32, label %25, !llvm.loop !11

32:                                               ; preds = %29, %25
  %33 = phi i32 [ %10, %29 ], [ %26, %25 ]
  %34 = icmp eq i32 %33, %24
  br i1 %34, label %35, label %38

35:                                               ; preds = %32
  %36 = call i32 (i8*, ...) @printf(i8* nonnull dereferenceable(1) getelementptr inbounds ([7 x i8], [7 x i8]* @.str.2, i64 0, i64 0), i32 %11, i32 %24)
  %37 = load i32, i32* %1, align 4, !tbaa !5
  br label %38

38:                                               ; preds = %32, %35, %20
  %39 = phi i32 [ %9, %32 ], [ %37, %35 ], [ %9, %20 ]
  %40 = add nuw nsw i32 %11, 1
  %41 = add nsw i32 %39, -2
  %42 = icmp slt i32 %11, %41
  %43 = add nuw i32 %10, 1
  br i1 %42, label %8, label %44, !llvm.loop !12

44:                                               ; preds = %38, %6
  %45 = load %struct._IO_FILE*, %struct._IO_FILE** @stdin, align 8, !tbaa !13
  %46 = call i32 @getc(%struct._IO_FILE* %45) #3
  %47 = load %struct._IO_FILE*, %struct._IO_FILE** @stdin, align 8, !tbaa !13
  %48 = call i32 @getc(%struct._IO_FILE* %47) #3
  call void @llvm.lifetime.end.p0i8(i64 4, i8* nonnull %2) #3
  ret i32 0
}

; Function Attrs: argmemonly mustprogress nofree nosync nounwind willreturn
declare void @llvm.lifetime.start.p0i8(i64 immarg, i8* nocapture) #1

; Function Attrs: nofree nounwind
declare noundef i32 @__isoc99_scanf(i8* nocapture noundef readonly, ...) local_unnamed_addr #2

; Function Attrs: nofree nounwind
declare noundef i32 @printf(i8* nocapture noundef readonly, ...) local_unnamed_addr #2

; Function Attrs: argmemonly mustprogress nofree nosync nounwind willreturn
declare void @llvm.lifetime.end.p0i8(i64 immarg, i8* nocapture) #1

; Function Attrs: nofree nounwind
declare noundef i32 @getc(%struct._IO_FILE* nocapture noundef) local_unnamed_addr #2


!llvm.module.flags = !{!0, !1, !2, !3}
!llvm.ident = !{!4}

!0 = !{i32 1, !"wchar_size", i32 4}
!1 = !{i32 7, !"PIC Level", i32 2}
!2 = !{i32 7, !"PIE Level", i32 2}
!3 = !{i32 7, !"uwtable", i32 1}
!4 = !{!"clang version 13.0.0"}
!5 = !{!6, !6, i64 0}
!6 = !{!"int", !7, i64 0}
!7 = !{!"omnipotent char", !8, i64 0}
!8 = !{!"Simple C/C++ TBAA"}
!9 = distinct !{!9, !10}
!10 = !{!"llvm.loop.mustprogress"}
!11 = distinct !{!11, !10}
!12 = distinct !{!12, !10}
!13 = !{!14, !14, i64 0}
!14 = !{!"any pointer", !7, i64 0}
